target datalayout = "e-m:e-p270:32:32-p271:32:32-p272:64:64-i64:64-i128:128-f80:128-n8:16:32:64-S128"
target triple = "x86_64-pc-linux-gnu"

%struct.__va_list_tag = type { i32, i32, ptr, ptr }

@zend_ce_type_error = external global ptr, align 8

; Function Attrs: nounwind uwtable
define dso_local void @zend_argument_type_error(i32 noundef %0, ptr noundef %1, ...) #0 {
  %3 = alloca i32, align 4
  %4 = alloca ptr, align 8
  %5 = alloca [1 x %struct.__va_list_tag], align 16
  store i32 %0, ptr %3, align 4, !tbaa !4
  store ptr %1, ptr %4, align 8, !tbaa !47
  call void @llvm.lifetime.start.p0(i64 24, ptr %5) #21
  %6 = getelementptr inbounds [1 x %struct.__va_list_tag], ptr %5, i64 0, i64 0
  call void @llvm.va_start.p0(ptr %6)
  %7 = load ptr, ptr @zend_ce_type_error, align 8, !tbaa !66
  %8 = load i32, ptr %3, align 4, !tbaa !4
  %9 = load ptr, ptr %4, align 8, !tbaa !47
  %10 = getelementptr inbounds [1 x %struct.__va_list_tag], ptr %5, i64 0, i64 0
  call void @zend_argument_error_variadic(ptr noundef %7, i32 noundef %8, ptr noundef %9, ptr noundef %10)
  %11 = getelementptr inbounds [1 x %struct.__va_list_tag], ptr %5, i64 0, i64 0
  call void @llvm.va_end.p0(ptr %11)
  call void @llvm.lifetime.end.p0(i64 24, ptr %5) #21
  ret void
}