; Function Attrs: nounwind uwtable
define dso_local void @zend_argument_type_error(i32 noundef %0, ptr noundef %1, ...) local_unnamed_addr #2 {
  %3 = alloca [1 x %struct.__va_list_tag], align 16
  call void @llvm.lifetime.start.p0(i64 24, ptr nonnull %3) #34
  call void @llvm.va_start.p0(ptr nonnull %3)
  %4 = load ptr, ptr @zend_ce_type_error, align 8, !tbaa !65
  call void @zend_argument_error_variadic(ptr noundef %4, i32 noundef %0, ptr noundef %1, ptr noundef nonnull %3)
  call void @llvm.va_end.p0(ptr nonnull %3)
  call void @llvm.lifetime.end.p0(i64 24, ptr nonnull %3) #34
  ret void
}